target datalayout = "e-m:e-p270:32:32-p271:32:32-p272:64:64-i64:64-i128:128-f80:128-n8:16:32:64-S128"
target triple = "x86_64-pc-linux-gnu"

%"class.google::protobuf::internal::LogMessage" = type { i32, ptr, i32, %"class.std::__cxx11::basic_string" }
%"class.std::__cxx11::basic_string" = type { %"struct.std::__cxx11::basic_string<char>::_Alloc_hider", i64, %union.anon.0 }
%"struct.std::__cxx11::basic_string<char>::_Alloc_hider" = type { ptr }
%union.anon.0 = type { i64, [8 x i8] }
%"class.google::protobuf::internal::LogFinisher" = type { i8 }
%"struct.google::protobuf::internal::ExtensionSet::Extension" = type { %union.anon.4, i8, i8, i8, i8, i32, ptr }
%union.anon.4 = type { i64 }
%"class.google::protobuf::internal::RepeatedPtrFieldBase" = type { ptr, i32, i32, ptr }
%"struct.google::protobuf::internal::RepeatedPtrFieldBase::Rep" = type { i32, [268435454 x ptr] }

@.str = private unnamed_addr constant [43 x i8] c"third_party/protobuf-lite/extension_set.cc\00", align 1
@_ZN6google8protobuf8internal14WireFormatLite22kFieldTypeToCppTypeMapE = external constant [0 x i32], align 4
@.str.47 = private unnamed_addr constant [67 x i8] c"CHECK failed: type > 0 && type <= WireFormatLite::MAX_FIELD_TYPE: \00", align 1
@.str.54 = private unnamed_addr constant [66 x i8] c"src/../third_party/protobuf-lite/google/protobuf/repeated_field.h\00", align 1
@.str.55 = private unnamed_addr constant [31 x i8] c"CHECK failed: (index) >= (0): \00", align 1
@.str.56 = private unnamed_addr constant [42 x i8] c"CHECK failed: (index) < (current_size_): \00", align 1

; Function Attrs: mustprogress nounwind uwtable
define linkonce_odr noundef ptr @_ZN6google8protobuf8internal20RepeatedPtrFieldBase4castINS0_16RepeatedPtrFieldINS0_11MessageLiteEE11TypeHandlerEEEPNT_4TypeEPv(ptr noundef %0) #4 comdat align 2 {
  %2 = alloca ptr, align 8
  store ptr %0, ptr %2, align 8
  %3 = load ptr, ptr %2, align 8
  ret ptr %3
}

; Function Attrs: mustprogress uwtable
define linkonce_odr noundef nonnull align 8 dereferenceable(16) ptr @_ZNK6google8protobuf8internal20RepeatedPtrFieldBase3GetINS0_16RepeatedPtrFieldINS0_11MessageLiteEE11TypeHandlerEEERKNT_4TypeEi(ptr noundef nonnull align 8 dereferenceable(24) %0, i32 noundef %1) #6 comdat align 2 personality ptr @__gxx_personality_v0 {
  %3 = alloca ptr, align 8
  %4 = alloca i32, align 4
  %5 = alloca %"class.google::protobuf::internal::LogMessage", align 8
  %6 = alloca i1, align 1
  %7 = alloca ptr, align 8
  %8 = alloca i32, align 4
  %9 = alloca %"class.google::protobuf::internal::LogFinisher", align 1
  %10 = alloca %"class.google::protobuf::internal::LogMessage", align 8
  %11 = alloca i1, align 1
  %12 = alloca %"class.google::protobuf::internal::LogFinisher", align 1
  store ptr %0, ptr %3, align 8
  store i32 %1, ptr %4, align 4
  %13 = load ptr, ptr %3, align 8
  br label %14

14:                                               ; preds = %26, %2
  br i1 false, label %15, label %34

15:                                               ; preds = %14
  %16 = load i32, ptr %4, align 4
  %17 = icmp sge i32 %16, 0
  store i1 false, ptr %6, align 1
  br i1 %17, label %18, label %19

18:                                               ; preds = %15
  br label %23

19:                                               ; preds = %15
  call void @_ZN6google8protobuf8internal10LogMessageC1ENS0_8LogLevelEPKci(ptr noundef nonnull align 8 dereferenceable(56) %5, i32 noundef 3, ptr noundef @.str.54, i32 noundef 1705)
  store i1 true, ptr %6, align 1
  %20 = invoke noundef nonnull align 8 dereferenceable(56) ptr @_ZN6google8protobuf8internal10LogMessagelsEPKc(ptr noundef nonnull align 8 dereferenceable(56) %5, ptr noundef @.str.55)
          to label %21 unwind label %27

21:                                               ; preds = %19
  invoke void @_ZN6google8protobuf8internal11LogFinisheraSERNS1_10LogMessageE(ptr noundef nonnull align 1 dereferenceable(1) %9, ptr noundef nonnull align 8 dereferenceable(56) %20)
          to label %22 unwind label %27

22:                                               ; preds = %21
  br label %23

23:                                               ; preds = %22, %18
  %24 = load i1, ptr %6, align 1
  br i1 %24, label %25, label %26

25:                                               ; preds = %23
  call void @_ZN6google8protobuf8internal10LogMessageD1Ev(ptr noundef nonnull align 8 dereferenceable(56) %5) #3
  br label %26

26:                                               ; preds = %25, %23
  br label %14, !llvm.loop !247

27:                                               ; preds = %21, %19
  %28 = landingpad { ptr, i32 }
          cleanup
  %29 = extractvalue { ptr, i32 } %28, 0
  store ptr %29, ptr %7, align 8
  %30 = extractvalue { ptr, i32 } %28, 1
  store i32 %30, ptr %8, align 4
  %31 = load i1, ptr %6, align 1
  br i1 %31, label %32, label %33

32:                                               ; preds = %27
  call void @_ZN6google8protobuf8internal10LogMessageD1Ev(ptr noundef nonnull align 8 dereferenceable(56) %5) #3
  br label %33

33:                                               ; preds = %32, %27
  br label %66

34:                                               ; preds = %14
  br label %35

35:                                               ; preds = %49, %34
  br i1 false, label %36, label %57

36:                                               ; preds = %35
  %37 = load i32, ptr %4, align 4
  %38 = getelementptr inbounds %"class.google::protobuf::internal::RepeatedPtrFieldBase", ptr %13, i32 0, i32 1
  %39 = load i32, ptr %38, align 8
  %40 = icmp slt i32 %37, %39
  store i1 false, ptr %11, align 1
  br i1 %40, label %41, label %42

41:                                               ; preds = %36
  br label %46

42:                                               ; preds = %36
  call void @_ZN6google8protobuf8internal10LogMessageC1ENS0_8LogLevelEPKci(ptr noundef nonnull align 8 dereferenceable(56) %10, i32 noundef 3, ptr noundef @.str.54, i32 noundef 1706)
  store i1 true, ptr %11, align 1
  %43 = invoke noundef nonnull align 8 dereferenceable(56) ptr @_ZN6google8protobuf8internal10LogMessagelsEPKc(ptr noundef nonnull align 8 dereferenceable(56) %10, ptr noundef @.str.56)
          to label %44 unwind label %50

44:                                               ; preds = %42
  invoke void @_ZN6google8protobuf8internal11LogFinisheraSERNS1_10LogMessageE(ptr noundef nonnull align 1 dereferenceable(1) %12, ptr noundef nonnull align 8 dereferenceable(56) %43)
          to label %45 unwind label %50

45:                                               ; preds = %44
  br label %46

46:                                               ; preds = %45, %41
  %47 = load i1, ptr %11, align 1
  br i1 %47, label %48, label %49

48:                                               ; preds = %46
  call void @_ZN6google8protobuf8internal10LogMessageD1Ev(ptr noundef nonnull align 8 dereferenceable(56) %10) #3
  br label %49

49:                                               ; preds = %48, %46
  br label %35, !llvm.loop !248

50:                                               ; preds = %44, %42
  %51 = landingpad { ptr, i32 }
          cleanup
  %52 = extractvalue { ptr, i32 } %51, 0
  store ptr %52, ptr %7, align 8
  %53 = extractvalue { ptr, i32 } %51, 1
  store i32 %53, ptr %8, align 4
  %54 = load i1, ptr %11, align 1
  br i1 %54, label %55, label %56

55:                                               ; preds = %50
  call void @_ZN6google8protobuf8internal10LogMessageD1Ev(ptr noundef nonnull align 8 dereferenceable(56) %10) #3
  br label %56

56:                                               ; preds = %55, %50
  br label %66

57:                                               ; preds = %35
  %58 = getelementptr inbounds %"class.google::protobuf::internal::RepeatedPtrFieldBase", ptr %13, i32 0, i32 3
  %59 = load ptr, ptr %58, align 8
  %60 = getelementptr inbounds %"struct.google::protobuf::internal::RepeatedPtrFieldBase::Rep", ptr %59, i32 0, i32 1
  %61 = load i32, ptr %4, align 4
  %62 = sext i32 %61 to i64
  %63 = getelementptr inbounds [268435454 x ptr], ptr %60, i64 0, i64 %62
  %64 = load ptr, ptr %63, align 8
  %65 = call noundef ptr @_ZN6google8protobuf8internal20RepeatedPtrFieldBase4castINS0_16RepeatedPtrFieldINS0_11MessageLiteEE11TypeHandlerEEEPNT_4TypeEPv(ptr noundef %64)
  ret ptr %65

66:                                               ; preds = %56, %33
  %67 = load ptr, ptr %7, align 8
  %68 = load i32, ptr %8, align 4
  %69 = insertvalue { ptr, i32 } poison, ptr %67, 0
  %70 = insertvalue { ptr, i32 } %69, i32 %68, 1
  resume { ptr, i32 } %70
}

; Function Attrs: mustprogress nounwind uwtable
define linkonce_odr noundef i32 @_ZNK6google8protobuf8internal20RepeatedPtrFieldBase4sizeEv(ptr noundef nonnull align 8 dereferenceable(24) %0) #4 comdat align 2 {
  %2 = alloca ptr, align 8
  store ptr %0, ptr %2, align 8
  %3 = load ptr, ptr %2, align 8
  %4 = getelementptr inbounds %"class.google::protobuf::internal::RepeatedPtrFieldBase", ptr %3, i32 0, i32 1
  %5 = load i32, ptr %4, align 8
  ret i32 %5
}

; Function Attrs: mustprogress nounwind uwtable
define linkonce_odr noundef i32 @_ZN6google8protobuf8internal14WireFormatLite18FieldTypeToCppTypeENS2_9FieldTypeE(i32 noundef %0) #4 comdat align 2 {
  %2 = alloca i32, align 4
  store i32 %0, ptr %2, align 4
  %3 = load i32, ptr %2, align 4
  %4 = zext i32 %3 to i64
  %5 = getelementptr inbounds [0 x i32], ptr @_ZN6google8protobuf8internal14WireFormatLite22kFieldTypeToCppTypeMapE, i64 0, i64 %4
  %6 = load i32, ptr %5, align 4
  ret i32 %6
}

; Function Attrs: mustprogress uwtable
define internal noundef i32 @_ZN6google8protobuf8internal12_GLOBAL__N_19real_typeEh(i8 noundef zeroext %0) #6 personality ptr @__gxx_personality_v0 {
  %2 = alloca i8, align 1
  %3 = alloca %"class.google::protobuf::internal::LogMessage", align 8
  %4 = alloca i1, align 1
  %5 = alloca ptr, align 8
  %6 = alloca i32, align 4
  %7 = alloca %"class.google::protobuf::internal::LogFinisher", align 1
  store i8 %0, ptr %2, align 1
  br label %8

8:                                                ; preds = %25, %1
  br i1 false, label %9, label %33

9:                                                ; preds = %8
  %10 = load i8, ptr %2, align 1
  %11 = zext i8 %10 to i32
  %12 = icmp sgt i32 %11, 0
  store i1 false, ptr %4, align 1
  br i1 %12, label %13, label %18

13:                                               ; preds = %9
  %14 = load i8, ptr %2, align 1
  %15 = zext i8 %14 to i32
  %16 = icmp sle i32 %15, 18
  br i1 %16, label %17, label %18

17:                                               ; preds = %13
  br label %22

18:                                               ; preds = %13, %9
  call void @_ZN6google8protobuf8internal10LogMessageC1ENS0_8LogLevelEPKci(ptr noundef nonnull align 8 dereferenceable(56) %3, i32 noundef 3, ptr noundef @.str, i32 noundef 60)
  store i1 true, ptr %4, align 1
  %19 = invoke noundef nonnull align 8 dereferenceable(56) ptr @_ZN6google8protobuf8internal10LogMessagelsEPKc(ptr noundef nonnull align 8 dereferenceable(56) %3, ptr noundef @.str.47)
          to label %20 unwind label %26

20:                                               ; preds = %18
  invoke void @_ZN6google8protobuf8internal11LogFinisheraSERNS1_10LogMessageE(ptr noundef nonnull align 1 dereferenceable(1) %7, ptr noundef nonnull align 8 dereferenceable(56) %19)
          to label %21 unwind label %26

21:                                               ; preds = %20
  br label %22

22:                                               ; preds = %21, %17
  %23 = load i1, ptr %4, align 1
  br i1 %23, label %24, label %25

24:                                               ; preds = %22
  call void @_ZN6google8protobuf8internal10LogMessageD1Ev(ptr noundef nonnull align 8 dereferenceable(56) %3) #3
  br label %25

25:                                               ; preds = %24, %22
  br label %8, !llvm.loop !163

26:                                               ; preds = %20, %18
  %27 = landingpad { ptr, i32 }
          cleanup
  %28 = extractvalue { ptr, i32 } %27, 0
  store ptr %28, ptr %5, align 8
  %29 = extractvalue { ptr, i32 } %27, 1
  store i32 %29, ptr %6, align 4
  %30 = load i1, ptr %4, align 1
  br i1 %30, label %31, label %32

31:                                               ; preds = %26
  call void @_ZN6google8protobuf8internal10LogMessageD1Ev(ptr noundef nonnull align 8 dereferenceable(56) %3) #3
  br label %32

32:                                               ; preds = %31, %26
  br label %36

33:                                               ; preds = %8
  %34 = load i8, ptr %2, align 1
  %35 = zext i8 %34 to i32
  ret i32 %35

36:                                               ; preds = %32
  %37 = load ptr, ptr %5, align 8
  %38 = load i32, ptr %6, align 4
  %39 = insertvalue { ptr, i32 } poison, ptr %37, 0
  %40 = insertvalue { ptr, i32 } %39, i32 %38, 1
  resume { ptr, i32 } %40
}

; Function Attrs: mustprogress uwtable
define linkonce_odr noundef nonnull align 8 dereferenceable(16) ptr @_ZNK6google8protobuf16RepeatedPtrFieldINS0_11MessageLiteEE3GetEi(ptr noundef nonnull align 8 dereferenceable(24) %0, i32 noundef %1) #6 comdat align 2 {
  %3 = alloca ptr, align 8
  %4 = alloca i32, align 4
  store ptr %0, ptr %3, align 8
  store i32 %1, ptr %4, align 4
  %5 = load ptr, ptr %3, align 8
  %6 = load i32, ptr %4, align 4
  %7 = call noundef nonnull align 8 dereferenceable(16) ptr @_ZNK6google8protobuf8internal20RepeatedPtrFieldBase3GetINS0_16RepeatedPtrFieldINS0_11MessageLiteEE11TypeHandlerEEERKNT_4TypeEi(ptr noundef nonnull align 8 dereferenceable(24) %5, i32 noundef %6)
  ret ptr %7
}

; Function Attrs: mustprogress uwtable
define linkonce_odr noundef i32 @_ZNK6google8protobuf16RepeatedPtrFieldINS0_11MessageLiteEE4sizeEv(ptr noundef nonnull align 8 dereferenceable(24) %0) #6 comdat align 2 {
  %2 = alloca ptr, align 8
  store ptr %0, ptr %2, align 8
  %3 = load ptr, ptr %2, align 8
  %4 = call noundef i32 @_ZNK6google8protobuf8internal20RepeatedPtrFieldBase4sizeEv(ptr noundef nonnull align 8 dereferenceable(24) %3)
  ret i32 %4
}

; Function Attrs: mustprogress uwtable
define internal noundef i32 @_ZN6google8protobuf8internal12_GLOBAL__N_18cpp_typeEh(i8 noundef zeroext %0) #6 {
  %2 = alloca i8, align 1
  store i8 %0, ptr %2, align 1
  %3 = load i8, ptr %2, align 1
  %4 = call noundef i32 @_ZN6google8protobuf8internal12_GLOBAL__N_19real_typeEh(i8 noundef zeroext %3)
  %5 = call noundef i32 @_ZN6google8protobuf8internal14WireFormatLite18FieldTypeToCppTypeENS2_9FieldTypeE(i32 noundef %4)
  ret i32 %5
}

; Function Attrs: mustprogress uwtable
define noundef zeroext i1 @_ZNK6google8protobuf8internal12ExtensionSet9Extension13IsInitializedEv(ptr noundef nonnull align 8 dereferenceable(24) %0) #6 align 2 {
  %2 = alloca i1, align 1
  %3 = alloca ptr, align 8
  %4 = alloca i32, align 4
  store ptr %0, ptr %3, align 8
  %5 = load ptr, ptr %3, align 8
  %6 = getelementptr inbounds %"struct.google::protobuf::internal::ExtensionSet::Extension", ptr %5, i32 0, i32 1
  %7 = load i8, ptr %6, align 8
  %8 = call noundef i32 @_ZN6google8protobuf8internal12_GLOBAL__N_18cpp_typeEh(i8 noundef zeroext %7)
  %9 = icmp eq i32 %8, 10
  br i1 %9, label %10, label %67

10:                                               ; preds = %1
  %11 = getelementptr inbounds %"struct.google::protobuf::internal::ExtensionSet::Extension", ptr %5, i32 0, i32 2
  %12 = load i8, ptr %11, align 1
  %13 = trunc i8 %12 to i1
  br i1 %13, label %14, label %36

14:                                               ; preds = %10
  store i32 0, ptr %4, align 4
  br label %15

15:                                               ; preds = %32, %14
  %16 = load i32, ptr %4, align 4
  %17 = getelementptr inbounds %"struct.google::protobuf::internal::ExtensionSet::Extension", ptr %5, i32 0, i32 0
  %18 = load ptr, ptr %17, align 8
  %19 = call noundef i32 @_ZNK6google8protobuf16RepeatedPtrFieldINS0_11MessageLiteEE4sizeEv(ptr noundef nonnull align 8 dereferenceable(24) %18)
  %20 = icmp slt i32 %16, %19
  br i1 %20, label %21, label %35

21:                                               ; preds = %15
  %22 = getelementptr inbounds %"struct.google::protobuf::internal::ExtensionSet::Extension", ptr %5, i32 0, i32 0
  %23 = load ptr, ptr %22, align 8
  %24 = load i32, ptr %4, align 4
  %25 = call noundef nonnull align 8 dereferenceable(16) ptr @_ZNK6google8protobuf16RepeatedPtrFieldINS0_11MessageLiteEE3GetEi(ptr noundef nonnull align 8 dereferenceable(24) %23, i32 noundef %24)
  %26 = load ptr, ptr %25, align 8
  %27 = getelementptr inbounds ptr, ptr %26, i64 6
  %28 = load ptr, ptr %27, align 8
  %29 = call noundef zeroext i1 %28(ptr noundef nonnull align 8 dereferenceable(16) %25)
  br i1 %29, label %31, label %30

30:                                               ; preds = %21
  store i1 false, ptr %2, align 1
  br label %68

31:                                               ; preds = %21
  br label %32

32:                                               ; preds = %31
  %33 = load i32, ptr %4, align 4
  %34 = add nsw i32 %33, 1
  store i32 %34, ptr %4, align 4
  br label %15, !llvm.loop !162

35:                                               ; preds = %15
  br label %66

36:                                               ; preds = %10
  %37 = getelementptr inbounds %"struct.google::protobuf::internal::ExtensionSet::Extension", ptr %5, i32 0, i32 3
  %38 = load i8, ptr %37, align 2
  %39 = and i8 %38, 15
  %40 = trunc i8 %39 to i1
  br i1 %40, label %65, label %41

41:                                               ; preds = %36
  %42 = getelementptr inbounds %"struct.google::protobuf::internal::ExtensionSet::Extension", ptr %5, i32 0, i32 3
  %43 = load i8, ptr %42, align 2
  %44 = lshr i8 %43, 4
  %45 = trunc i8 %44 to i1
  br i1 %45, label %46, label %55

46:                                               ; preds = %41
  %47 = getelementptr inbounds %"struct.google::protobuf::internal::ExtensionSet::Extension", ptr %5, i32 0, i32 0
  %48 = load ptr, ptr %47, align 8
  %49 = load ptr, ptr %48, align 8
  %50 = getelementptr inbounds ptr, ptr %49, i64 9
  %51 = load ptr, ptr %50, align 8
  %52 = call noundef zeroext i1 %51(ptr noundef nonnull align 8 dereferenceable(8) %48)
  br i1 %52, label %54, label %53

53:                                               ; preds = %46
  store i1 false, ptr %2, align 1
  br label %68

54:                                               ; preds = %46
  br label %64

55:                                               ; preds = %41
  %56 = getelementptr inbounds %"struct.google::protobuf::internal::ExtensionSet::Extension", ptr %5, i32 0, i32 0
  %57 = load ptr, ptr %56, align 8
  %58 = load ptr, ptr %57, align 8
  %59 = getelementptr inbounds ptr, ptr %58, i64 6
  %60 = load ptr, ptr %59, align 8
  %61 = call noundef zeroext i1 %60(ptr noundef nonnull align 8 dereferenceable(16) %57)
  br i1 %61, label %63, label %62

62:                                               ; preds = %55
  store i1 false, ptr %2, align 1
  br label %68

63:                                               ; preds = %55
  br label %64

64:                                               ; preds = %63, %54
  br label %65

65:                                               ; preds = %64, %36
  br label %66

66:                                               ; preds = %65, %35
  br label %67

67:                                               ; preds = %66, %1
  store i1 true, ptr %2, align 1
  br label %68

68:                                               ; preds = %67, %62, %53, %30
  %69 = load i1, ptr %2, align 1
  ret i1 %69
}