; Function Attrs: mustprogress uwtable
define noundef zeroext i1 @_ZNK6google8protobuf8internal12ExtensionSet9Extension13IsInitializedEv(ptr nocapture noundef nonnull readonly align 8 dereferenceable(24) %0) local_unnamed_addr #8 align 2 personality ptr @__gxx_personality_v0 {
  %2 = getelementptr inbounds i8, ptr %0, i64 8
  %3 = load i8, ptr %2, align 8
  %4 = zext i8 %3 to i64
  %5 = getelementptr inbounds [0 x i32], ptr @_ZN6google8protobuf8internal14WireFormatLite22kFieldTypeToCppTypeMapE, i64 0, i64 %4
  %6 = load i32, ptr %5, align 4
  %7 = icmp eq i32 %6, 10
  br i1 %7, label %8, label %.loopexit

8:                                                ; preds = %1
  %9 = getelementptr inbounds i8, ptr %0, i64 9
  %10 = load i8, ptr %9, align 1
  %11 = trunc i8 %10 to i1
  br i1 %11, label %.preheader, label %32

.preheader:                                       ; preds = %8
  %12 = load ptr, ptr %0, align 8
  %13 = getelementptr inbounds i8, ptr %12, i64 8
  %14 = load i32, ptr %13, align 8
  %15 = icmp sgt i32 %14, 0
  br i1 %15, label %.lr.ph, label %.loopexit

16:                                               ; preds = %.lr.ph
  %indvars.iv.next = add nuw nsw i64 %indvars.iv, 1
  %17 = load ptr, ptr %0, align 8
  %18 = getelementptr inbounds i8, ptr %17, i64 8
  %19 = load i32, ptr %18, align 8
  %20 = sext i32 %19 to i64
  %21 = icmp slt i64 %indvars.iv.next, %20
  br i1 %21, label %.lr.ph, label %.loopexit, !llvm.loop !30

.lr.ph:                                           ; preds = %.preheader, %16
  %indvars.iv = phi i64 [ %indvars.iv.next, %16 ], [ 0, %.preheader ]
  %22 = phi ptr [ %17, %16 ], [ %12, %.preheader ]
  %23 = getelementptr inbounds i8, ptr %22, i64 16
  %24 = load ptr, ptr %23, align 8
  %25 = getelementptr inbounds i8, ptr %24, i64 8
  %26 = getelementptr inbounds [268435454 x ptr], ptr %25, i64 0, i64 %indvars.iv
  %27 = load ptr, ptr %26, align 8
  %28 = load ptr, ptr %27, align 8
  %29 = getelementptr inbounds i8, ptr %28, i64 48
  %30 = load ptr, ptr %29, align 8
  %31 = tail call noundef zeroext i1 %30(ptr noundef nonnull align 8 dereferenceable(16) %27)
  br i1 %31, label %16, label %.loopexit5

32:                                               ; preds = %8
  %33 = getelementptr inbounds i8, ptr %0, i64 10
  %34 = load i8, ptr %33, align 2
  %35 = trunc i8 %34 to i1
  br i1 %35, label %.loopexit, label %36

36:                                               ; preds = %32
  %37 = and i8 %34, 16
  %.not = icmp eq i8 %37, 0
  %38 = load ptr, ptr %0, align 8
  %39 = load ptr, ptr %38, align 8
  br i1 %.not, label %44, label %40

40:                                               ; preds = %36
  %41 = getelementptr inbounds i8, ptr %39, i64 72
  %42 = load ptr, ptr %41, align 8
  %43 = tail call noundef zeroext i1 %42(ptr noundef nonnull align 8 dereferenceable(8) %38)
  br i1 %43, label %.loopexit, label %.loopexit5

44:                                               ; preds = %36
  %45 = getelementptr inbounds i8, ptr %39, i64 48
  %46 = load ptr, ptr %45, align 8
  %47 = tail call noundef zeroext i1 %46(ptr noundef nonnull align 8 dereferenceable(16) %38)
  br i1 %47, label %.loopexit, label %.loopexit5

.loopexit:                                        ; preds = %16, %.preheader, %40, %44, %32, %1
  br label %.loopexit5

.loopexit5:                                       ; preds = %.lr.ph, %44, %40, %.loopexit
  %.04 = phi i1 [ true, %.loopexit ], [ false, %40 ], [ false, %44 ], [ false, %.lr.ph ]
  ret i1 %.04
}